; ModuleID = '19/309.c'
source_filename = "19/309.c"
target datalayout = "e-m:e-p270:32:32-p271:32:32-p272:64:64-i64:64-f80:128-n8:16:32:64-S128"
target triple = "x86_64-pc-linux-gnu"

@.str = private unnamed_addr constant [3 x i8] c"%s\00", align 1
@.str.1 = private unnamed_addr constant [1 x i8] zeroinitializer, align 1
@.str.2 = private unnamed_addr constant [2 x i8] c" \00", align 1

; Function Attrs: noinline nounwind uwtable
define dso_local void @main() #0 {
  %1 = alloca [30 x [20 x i8]], align 16
  %2 = alloca [101 x i8], align 16
  %3 = alloca [101 x i8], align 16
  %4 = alloca i8, align 1
  %5 = alloca [20 x i8]*, align 8
  %6 = alloca i32, align 4
  %7 = bitcast [30 x [20 x i8]]* %1 to i8*
  call void @llvm.memset.p0i8.i64(i8* align 16 %7, i8 0, i64 600, i1 false)
  %8 = bitcast [101 x i8]* %2 to i8*
  call void @llvm.memset.p0i8.i64(i8* align 16 %8, i8 0, i64 101, i1 false)
  %9 = bitcast [101 x i8]* %3 to i8*
  call void @llvm.memset.p0i8.i64(i8* align 16 %9, i8 0, i64 101, i1 false)
  store i32 0, i32* %6, align 4
  store i8 0, i8* %4, align 1
  br label %10

10:                                               ; preds = %14, %0
  %11 = load i8, i8* %4, align 1
  %12 = sext i8 %11 to i32
  %13 = icmp ne i32 %12, 10
  br i1 %13, label %14, label %23

14:                                               ; preds = %10
  %15 = load i32, i32* %6, align 4
  %16 = add nsw i32 %15, 1
  store i32 %16, i32* %6, align 4
  %17 = sext i32 %15 to i64
  %18 = getelementptr inbounds [30 x [20 x i8]], [30 x [20 x i8]]* %1, i64 0, i64 %17
  %19 = getelementptr inbounds [20 x i8], [20 x i8]* %18, i64 0, i64 0
  %20 = call i32 (i8*, ...) @__isoc99_scanf(i8* getelementptr inbounds ([3 x i8], [3 x i8]* @.str, i64 0, i64 0), i8* %19)
  %21 = call i32 @getchar()
  %22 = trunc i32 %21 to i8
  store i8 %22, i8* %4, align 1
  br label %10

23:                                               ; preds = %10
  %24 = getelementptr inbounds [101 x i8], [101 x i8]* %2, i64 0, i64 0
  %25 = call i32 (i8*, ...) bitcast (i32 (...)* @gets to i32 (i8*, ...)*)(i8* %24)
  %26 = getelementptr inbounds [101 x i8], [101 x i8]* %3, i64 0, i64 0
  %27 = call i32 (i8*, ...) bitcast (i32 (...)* @gets to i32 (i8*, ...)*)(i8* %26)
  %28 = getelementptr inbounds [30 x [20 x i8]], [30 x [20 x i8]]* %1, i64 0, i64 0
  store [20 x i8]* %28, [20 x i8]** %5, align 8
  br label %29

29:                                               ; preds = %56, %23
  %30 = load [20 x i8]*, [20 x i8]** %5, align 8
  %31 = getelementptr inbounds [20 x i8], [20 x i8]* %30, i64 0, i64 0
  %32 = call i32 @strcmp(i8* %31, i8* getelementptr inbounds ([1 x i8], [1 x i8]* @.str.1, i64 0, i64 0)) #4
  %33 = icmp ne i32 %32, 0
  br i1 %33, label %34, label %57

34:                                               ; preds = %29
  %35 = load [20 x i8]*, [20 x i8]** %5, align 8
  %36 = getelementptr inbounds [20 x i8], [20 x i8]* %35, i64 0, i64 0
  %37 = getelementptr inbounds [101 x i8], [101 x i8]* %2, i64 0, i64 0
  %38 = call i32 @strcmp(i8* %36, i8* %37) #4
  %39 = icmp eq i32 %38, 0
  br i1 %39, label %40, label %43

40:                                               ; preds = %34
  %41 = getelementptr inbounds [101 x i8], [101 x i8]* %3, i64 0, i64 0
  %42 = call i32 (i8*, ...) @printf(i8* getelementptr inbounds ([3 x i8], [3 x i8]* @.str, i64 0, i64 0), i8* %41)
  br label %47

43:                                               ; preds = %34
  %44 = load [20 x i8]*, [20 x i8]** %5, align 8
  %45 = getelementptr inbounds [20 x i8], [20 x i8]* %44, i64 0, i64 0
  %46 = call i32 (i8*, ...) @printf(i8* getelementptr inbounds ([3 x i8], [3 x i8]* @.str, i64 0, i64 0), i8* %45)
  br label %47

47:                                               ; preds = %43, %40
  %48 = load [20 x i8]*, [20 x i8]** %5, align 8
  %49 = getelementptr inbounds [20 x i8], [20 x i8]* %48, i32 1
  store [20 x i8]* %49, [20 x i8]** %5, align 8
  %50 = load [20 x i8]*, [20 x i8]** %5, align 8
  %51 = getelementptr inbounds [20 x i8], [20 x i8]* %50, i64 0, i64 0
  %52 = call i32 @strcmp(i8* %51, i8* getelementptr inbounds ([1 x i8], [1 x i8]* @.str.1, i64 0, i64 0)) #4
  %53 = icmp ne i32 %52, 0
  br i1 %53, label %54, label %56

54:                                               ; preds = %47
  %55 = call i32 (i8*, ...) @printf(i8* getelementptr inbounds ([2 x i8], [2 x i8]* @.str.2, i64 0, i64 0))
  br label %56

56:                                               ; preds = %54, %47
  br label %29

57:                                               ; preds = %29
  ret void
}

; Function Attrs: argmemonly nounwind willreturn
declare void @llvm.memset.p0i8.i64(i8* nocapture writeonly, i8, i64, i1 immarg) #1

declare dso_local i32 @__isoc99_scanf(i8*, ...) #2

declare dso_local i32 @getchar() #2

declare dso_local i32 @gets(...) #2

; Function Attrs: nounwind readonly
declare dso_local i32 @strcmp(i8*, i8*) #3

declare dso_local i32 @printf(i8*, ...) #2


!llvm.module.flags = !{!0}
!llvm.ident = !{!1}

!0 = !{i32 1, !"wchar_size", i32 4}
!1 = !{!"clang version 10.0.0-4ubuntu1 "}
